target datalayout = "e-m:e-p270:32:32-p271:32:32-p272:64:64-i64:64-i128:128-f80:128-n8:16:32:64-S128"
target triple = "x86_64-pc-linux-gnu"

@kingfisher_conv_handle = internal global ptr null, align 8

; Function Attrs: nounwind uwtable
define internal i32 @dissect_kingfisher_heur(ptr noundef %0, ptr noundef %1, ptr noundef %2, ptr noundef %3) #0 {
  %5 = alloca ptr, align 8
  %6 = alloca ptr, align 8
  %7 = alloca ptr, align 8
  %8 = alloca ptr, align 8
  %9 = alloca i32, align 4
  %10 = alloca ptr, align 8
  store ptr %0, ptr %5, align 8
  store ptr %1, ptr %6, align 8
  store ptr %2, ptr %7, align 8
  store ptr %3, ptr %8, align 8
  %11 = load ptr, ptr %5, align 8
  %12 = load ptr, ptr %6, align 8
  %13 = load ptr, ptr %7, align 8
  %14 = call i32 @dissect_kingfisher(ptr noundef %11, ptr noundef %12, ptr noundef %13, i32 noundef 0)
  store i32 %14, ptr %9, align 4
  %15 = load i32, ptr %9, align 4
  %16 = icmp ne i32 %15, 0
  br i1 %16, label %17, label %22

17:                                               ; preds = %4
  %18 = load ptr, ptr %6, align 8
  %19 = call nonnull ptr @find_or_create_conversation(ptr noundef %18)
  store ptr %19, ptr %10, align 8
  %20 = load ptr, ptr %10, align 8
  %21 = load ptr, ptr @kingfisher_conv_handle, align 8
  call void @conversation_set_dissector(ptr noundef %20, ptr noundef %21)
  br label %22

22:                                               ; preds = %17, %4
  %23 = load i32, ptr %9, align 4
  ret i32 %23
}