; Function Attrs: nounwind uwtable
define internal range(i32 0, 2) i32 @dissect_kingfisher_heur(ptr noundef %0, ptr noundef %1, ptr noundef %2, ptr readnone captures(none) %3) #0 {
  %5 = tail call fastcc i32 @dissect_kingfisher(ptr noundef %0, ptr noundef %1, ptr noundef %2, i32 noundef 0)
  %.not = icmp eq i32 %5, 0
  br i1 %.not, label %9, label %6

6:                                                ; preds = %4
  %7 = tail call nonnull ptr @find_or_create_conversation(ptr noundef %1) #2
  %8 = load ptr, ptr @kingfisher_conv_handle, align 8
  tail call void @conversation_set_dissector(ptr noundef nonnull %7, ptr noundef %8) #2
  br label %9

9:                                                ; preds = %6, %4
  ret i32 %5
}